target datalayout = "e-m:e-p270:32:32-p271:32:32-p272:64:64-i64:64-i128:128-f80:128-n8:16:32:64-S128"
target triple = "x86_64-pc-linux-gnu"

; Function Attrs: null_pointer_is_valid sspstrong uwtable
define internal ptr @sip_proto_tree_add_string(ptr noundef %0, i32 noundef %1, ptr noundef %2, i32 noundef %3, i32 noundef %4, i32 noundef %5, i32 noundef %6) #0 {
  %8 = alloca ptr, align 8
  %9 = alloca ptr, align 8
  %10 = alloca i32, align 4
  %11 = alloca ptr, align 8
  %12 = alloca i32, align 4
  %13 = alloca i32, align 4
  %14 = alloca i32, align 4
  %15 = alloca i32, align 4
  %16 = alloca ptr, align 8
  %17 = alloca i32, align 4
  store ptr %0, ptr %9, align 8
  store i32 %1, ptr %10, align 4
  store ptr %2, ptr %11, align 8
  store i32 %3, ptr %12, align 4
  store i32 %4, ptr %13, align 4
  store i32 %5, ptr %14, align 4
  store i32 %6, ptr %15, align 4
  call void @llvm.lifetime.start.p0(i64 8, ptr %16) #18
  %18 = load ptr, ptr %9, align 8
  %19 = load i32, ptr %10, align 4
  %20 = call zeroext i1 @proto_field_is_referenced(ptr noundef %18, i32 noundef %19)
  br i1 %20, label %23, label %21

21:                                               ; preds = %7
  %22 = load ptr, ptr %9, align 8
  store ptr %22, ptr %8, align 8
  store i32 1, ptr %17, align 4
  br label %36

23:                                               ; preds = %7
  %24 = call ptr @wmem_packet_scope()
  %25 = load ptr, ptr %11, align 8
  %26 = load i32, ptr %14, align 4
  %27 = load i32, ptr %15, align 4
  %28 = call ptr @tvb_get_string_enc(ptr noundef %24, ptr noundef %25, i32 noundef %26, i32 noundef %27, i32 noundef 2)
  store ptr %28, ptr %16, align 8
  %29 = load ptr, ptr %9, align 8
  %30 = load i32, ptr %10, align 4
  %31 = load ptr, ptr %11, align 8
  %32 = load i32, ptr %12, align 4
  %33 = load i32, ptr %13, align 4
  %34 = load ptr, ptr %16, align 8
  %35 = call ptr @proto_tree_add_string(ptr noundef %29, i32 noundef %30, ptr noundef %31, i32 noundef %32, i32 noundef %33, ptr noundef %34)
  store ptr %35, ptr %8, align 8
  store i32 1, ptr %17, align 4
  br label %36

36:                                               ; preds = %23, %21
  call void @llvm.lifetime.end.p0(i64 8, ptr %16) #18
  %37 = load ptr, ptr %8, align 8
  ret ptr %37
}