; Function Attrs: null_pointer_is_valid sspstrong uwtable
define internal fastcc ptr @sip_proto_tree_add_string(ptr noundef %0, i32 noundef %1, ptr noundef %2, i32 noundef %3, i32 noundef %4, i32 noundef %5, i32 noundef %6) unnamed_addr #0 {
  %8 = tail call zeroext i1 @proto_field_is_referenced(ptr noundef %0, i32 noundef %1)
  br i1 %8, label %9, label %13

9:                                                ; preds = %7
  %10 = tail call ptr @wmem_packet_scope()
  %11 = tail call ptr @tvb_get_string_enc(ptr noundef %10, ptr noundef %2, i32 noundef %5, i32 noundef %6, i32 noundef 2)
  %12 = tail call ptr @proto_tree_add_string(ptr noundef %0, i32 noundef %1, ptr noundef %2, i32 noundef %3, i32 noundef %4, ptr noundef %11)
  br label %13

13:                                               ; preds = %7, %9
  %.0 = phi ptr [ %12, %9 ], [ %0, %7 ]
  ret ptr %.0
}